target datalayout = "e-m:e-p270:32:32-p271:32:32-p272:64:64-i64:64-i128:128-f80:128-n8:16:32:64-S128"
target triple = "x86_64-pc-linux-gnu"

@_ZN7rocksdb14ThreadPoolImplC1Ev = unnamed_addr alias void (ptr), ptr @_ZN7rocksdb14ThreadPoolImplC2Ev

; Function Attrs: mustprogress uwtable
define noundef ptr @_ZN7rocksdb13NewThreadPoolEi(i32 noundef %0) #3 personality ptr @__gxx_personality_v0 {
  %2 = alloca i32, align 4
  %3 = alloca ptr, align 8
  %4 = alloca ptr, align 8
  %5 = alloca i32, align 4
  store i32 %0, ptr %2, align 4, !tbaa !37
  call void @llvm.lifetime.start.p0(i64 8, ptr %3) #5
  %6 = call noalias noundef nonnull ptr @_Znwm(i64 noundef 16) #24
  invoke void @_ZN7rocksdb14ThreadPoolImplC1Ev(ptr noundef nonnull align 8 dereferenceable(16) %6)
          to label %7 unwind label %14

7:                                                ; preds = %1
  store ptr %6, ptr %3, align 8, !tbaa !177
  %8 = load ptr, ptr %3, align 8, !tbaa !177
  %9 = load i32, ptr %2, align 4, !tbaa !37
  %10 = load ptr, ptr %8, align 8, !tbaa !141
  %11 = getelementptr inbounds ptr, ptr %10, i64 3
  %12 = load ptr, ptr %11, align 8
  call void %12(ptr noundef nonnull align 8 dereferenceable(16) %8, i32 noundef %9)
  %13 = load ptr, ptr %3, align 8, !tbaa !177
  call void @llvm.lifetime.end.p0(i64 8, ptr %3) #5
  ret ptr %13

14:                                               ; preds = %1
  %15 = landingpad { ptr, i32 }
          cleanup
  %16 = extractvalue { ptr, i32 } %15, 0
  store ptr %16, ptr %4, align 8
  %17 = extractvalue { ptr, i32 } %15, 1
  store i32 %17, ptr %5, align 4
  call void @_ZdlPvm(ptr noundef %6, i64 noundef 16) #23
  call void @llvm.lifetime.end.p0(i64 8, ptr %3) #5
  br label %18

18:                                               ; preds = %14
  %19 = load ptr, ptr %4, align 8
  %20 = load i32, ptr %5, align 4
  %21 = insertvalue { ptr, i32 } poison, ptr %19, 0
  %22 = insertvalue { ptr, i32 } %21, i32 %20, 1
  resume { ptr, i32 } %22
}