; Function Attrs: mustprogress uwtable
define noundef nonnull ptr @_ZN7rocksdb13NewThreadPoolEi(i32 noundef %0) local_unnamed_addr #3 personality ptr @__gxx_personality_v0 {
  %2 = tail call noalias noundef nonnull dereferenceable(16) ptr @_Znwm(i64 noundef 16) #30
  invoke void @_ZN7rocksdb14ThreadPoolImplC1Ev(ptr noundef nonnull align 8 dereferenceable(16) %2)
          to label %3 unwind label %7

3:                                                ; preds = %1
  %4 = load ptr, ptr %2, align 8, !tbaa !86
  %5 = getelementptr inbounds nuw i8, ptr %4, i64 24
  %6 = load ptr, ptr %5, align 8
  tail call void %6(ptr noundef nonnull align 8 dereferenceable(16) %2, i32 noundef %0)
  ret ptr %2

7:                                                ; preds = %1
  %8 = landingpad { ptr, i32 }
          cleanup
  tail call void @_ZdlPvm(ptr noundef nonnull %2, i64 noundef 16) #25
  resume { ptr, i32 } %8
}